target datalayout = "e-m:e-p270:32:32-p271:32:32-p272:64:64-i64:64-i128:128-f80:128-n8:16:32:64-S128"
target triple = "x86_64-pc-linux-gnu"

%struct.PaUtilStreamRepresentation = type { i64, ptr, ptr, ptr, ptr, ptr, %struct.PaStreamInfo }
%struct.PaStreamInfo = type { i32, double, double, double }
%struct.PaUtilStreamInterface = type { ptr, ptr, ptr, ptr, ptr, ptr, ptr, ptr, ptr, ptr, ptr, ptr }

@initializationCount_ = internal global i32 0, align 4

; Function Attrs: nounwind uwtable
define i32 @PaUtil_ValidateStreamPointer(ptr noundef %0) #0 {
  %2 = alloca i32, align 4
  %3 = alloca ptr, align 8
  store ptr %0, ptr %3, align 8
  %4 = load i32, ptr @initializationCount_, align 4
  %5 = icmp ne i32 %4, 0
  br i1 %5, label %7, label %6

6:                                                ; preds = %1
  store i32 -10000, ptr %2, align 4
  br label %18

7:                                                ; preds = %1
  %8 = load ptr, ptr %3, align 8
  %9 = icmp eq ptr %8, null
  br i1 %9, label %10, label %11

10:                                               ; preds = %7
  store i32 -9988, ptr %2, align 4
  br label %18

11:                                               ; preds = %7
  %12 = load ptr, ptr %3, align 8
  %13 = getelementptr inbounds nuw %struct.PaUtilStreamRepresentation, ptr %12, i32 0, i32 0
  %14 = load i64, ptr %13, align 8
  %15 = icmp ne i64 %14, 405222981
  br i1 %15, label %16, label %17

16:                                               ; preds = %11
  store i32 -9988, ptr %2, align 4
  br label %18

17:                                               ; preds = %11
  store i32 0, ptr %2, align 4
  br label %18

18:                                               ; preds = %17, %16, %10, %6
  %19 = load i32, ptr %2, align 4
  ret i32 %19
}

; Function Attrs: nounwind uwtable
define double @Pa_GetStreamTime(ptr noundef %0) #0 {
  %2 = alloca ptr, align 8
  %3 = alloca i32, align 4
  %4 = alloca double, align 8
  store ptr %0, ptr %2, align 8
  %5 = load ptr, ptr %2, align 8
  %6 = call i32 @PaUtil_ValidateStreamPointer(ptr noundef %5)
  store i32 %6, ptr %3, align 4
  %7 = load i32, ptr %3, align 4
  %8 = icmp ne i32 %7, 0
  br i1 %8, label %9, label %10

9:                                                ; preds = %1
  store double 0.000000e+00, ptr %4, align 8
  br label %18

10:                                               ; preds = %1
  %11 = load ptr, ptr %2, align 8
  %12 = getelementptr inbounds nuw %struct.PaUtilStreamRepresentation, ptr %11, i32 0, i32 2
  %13 = load ptr, ptr %12, align 8
  %14 = getelementptr inbounds nuw %struct.PaUtilStreamInterface, ptr %13, i32 0, i32 6
  %15 = load ptr, ptr %14, align 8
  %16 = load ptr, ptr %2, align 8
  %17 = call double %15(ptr noundef %16)
  store double %17, ptr %4, align 8
  br label %18

18:                                               ; preds = %10, %9
  %19 = load double, ptr %4, align 8
  ret double %19
}